; Function Attrs: nounwind uwtable
define range(i32 0, 2) i32 @lv_mem_test_core() local_unnamed_addr #0 {
  %1 = load ptr, ptr getelementptr inbounds nuw (i8, ptr @lv_global, i64 784), align 8, !tbaa !3
  %2 = tail call i32 @lv_tlsf_check(ptr noundef %1) #4
  %.not = icmp eq i32 %2, 0
  br i1 %.not, label %3, label %.loopexit

3:                                                ; preds = %0
  %4 = tail call ptr @lv_ll_get_head(ptr noundef nonnull getelementptr inbounds nuw (i8, ptr @lv_global, i64 808)) #4
  %.not46 = icmp eq ptr %4, null
  br i1 %.not46, label %.loopexit, label %.lr.ph

.lr.ph:                                           ; preds = %3, %7
  %.07 = phi ptr [ %8, %7 ], [ %4, %3 ]
  %5 = load ptr, ptr %.07, align 8, !tbaa !30
  %6 = tail call i32 @lv_tlsf_check_pool(ptr noundef %5) #4
  %.not5 = icmp eq i32 %6, 0
  br i1 %.not5, label %7, label %.loopexit

7:                                                ; preds = %.lr.ph
  %8 = tail call ptr @lv_ll_get_next(ptr noundef nonnull getelementptr inbounds nuw (i8, ptr @lv_global, i64 808), ptr noundef nonnull %.07) #4
  %.not4 = icmp eq ptr %8, null
  br i1 %.not4, label %.loopexit, label %.lr.ph, !llvm.loop !45

.loopexit:                                        ; preds = %7, %.lr.ph, %3, %0
  %.03 = phi i32 [ 0, %0 ], [ 1, %3 ], [ 1, %7 ], [ 0, %.lr.ph ]
  ret i32 %.03
}